ccopy_reg
_reconstructor
p0
(csklearn.ensemble.forest
RandomForestClassifier
p1
c__builtin__
object
p2
Ntp3
Rp4
(dp5
S'base_estimator'
p6
g0
(csklearn.tree.tree
DecisionTreeClassifier
p7
g2
Ntp8
Rp9
(dp10
S'splitter'
p11
S'best'
p12
sS'tree_'
p13
NsS'n_features_'
p14
NsS'n_outputs_'
p15
NsS'n_classes_'
p16
NsS'max_leaf_nodes'
p17
NsS'classes_'
p18
NsS'max_features_'
p19
NsS'min_samples_leaf'
p20
I1
sS'max_features'
p21
NsS'random_state'
p22
NsS'criterion'
p23
S'gini'
p24
sS'min_samples_split'
p25
I2
sS'max_depth'
p26
NsbsS'estimators_'
p27
(lp28
sS'n_jobs'
p29
I1
sS'verbose'
p30
I1
sg22
NsS'bootstrap'
p31
I01
sS'oob_score'
p32
I01
sg20
I1
sS'n_estimators'
p33
I835
sg21
NsS'estimator_params'
p34
(S'criterion'
p35
S'max_depth'
p36
S'min_samples_split'
p37
S'min_samples_leaf'
p38
S'max_features'
p39
S'max_leaf_nodes'
p40
S'random_state'
p41
tp42
sg23
S'entropy'
p43
sg17
Nsg25
I2
sg26
Nsb.